#include <math.h>
#include <stdio.h>
#include <stdlib.h>
#include <string.h>

void main()
{
	int a[26],b[26],i,j,n,max=1;
	scanf("%d",&n);
	for(i=1;i<=n;i++)
	{
		scanf("%d",&a[i]);
		b[i]=1;
	}
	for(i=2;i<=n;i++)
		for(j=1;j<i;j++)
		  if (a[i-j]>=a[i]&&b[i-j]>(b[i]-1)) b[i]=b[i-j]+1;
	for(i=1;i<=n;i++)
		if(b[i]>max) max=b[i];
	printf("%d",max);
}